target datalayout = "e-m:e-p270:32:32-p271:32:32-p272:64:64-i64:64-i128:128-f80:128-n8:16:32:64-S128"
target triple = "x86_64-pc-linux-gnu"

%struct.Decimal = type { i8, i8, i8, i8, i32, i32, ptr }

; Function Attrs: nounwind uwtable
define internal void @decimal_clear(ptr noundef %0) #0 {
  %2 = alloca ptr, align 8
  store ptr %0, ptr %2, align 8, !tbaa !68
  %3 = load ptr, ptr %2, align 8, !tbaa !68
  %4 = getelementptr inbounds nuw %struct.Decimal, ptr %3, i32 0, i32 6
  %5 = load ptr, ptr %4, align 8, !tbaa !75
  call void @sqlite3_free(ptr noundef %5)
  ret void
}

; Function Attrs: nounwind uwtable
define internal void @decimal_free(ptr noundef %0) #0 {
  %2 = alloca ptr, align 8
  store ptr %0, ptr %2, align 8, !tbaa !68
  %3 = load ptr, ptr %2, align 8, !tbaa !68
  %4 = icmp ne ptr %3, null
  br i1 %4, label %5, label %8

5:                                                ; preds = %1
  %6 = load ptr, ptr %2, align 8, !tbaa !68
  call void @decimal_clear(ptr noundef %6)
  %7 = load ptr, ptr %2, align 8, !tbaa !68
  call void @sqlite3_free(ptr noundef %7)
  br label %8

8:                                                ; preds = %5, %1
  ret void
}

; Function Attrs: nounwind uwtable
define internal void @decimalFunc(ptr noundef %0, i32 noundef %1, ptr noundef %2) #0 {
  %4 = alloca ptr, align 8
  %5 = alloca i32, align 4
  %6 = alloca ptr, align 8
  %7 = alloca ptr, align 8
  store ptr %0, ptr %4, align 8, !tbaa !25
  store i32 %1, ptr %5, align 4, !tbaa !3
  store ptr %2, ptr %6, align 8, !tbaa !27
  call void @llvm.lifetime.start.p0(i64 8, ptr %7) #14
  %8 = load ptr, ptr %4, align 8, !tbaa !25
  %9 = load ptr, ptr %6, align 8, !tbaa !27
  %10 = getelementptr inbounds ptr, ptr %9, i64 0
  %11 = load ptr, ptr %10, align 8, !tbaa !29
  %12 = call ptr @decimal_new(ptr noundef %8, ptr noundef %11, i32 noundef 0)
  store ptr %12, ptr %7, align 8, !tbaa !68
  %13 = load ptr, ptr %7, align 8, !tbaa !68
  %14 = icmp ne ptr %13, null
  br i1 %14, label %15, label %27

15:                                               ; preds = %3
  %16 = load ptr, ptr %4, align 8, !tbaa !25
  %17 = call ptr @sqlite3_user_data(ptr noundef %16)
  %18 = icmp ne ptr %17, null
  br i1 %18, label %19, label %22

19:                                               ; preds = %15
  %20 = load ptr, ptr %4, align 8, !tbaa !25
  %21 = load ptr, ptr %7, align 8, !tbaa !68
  call void @decimal_result_sci(ptr noundef %20, ptr noundef %21)
  br label %25

22:                                               ; preds = %15
  %23 = load ptr, ptr %4, align 8, !tbaa !25
  %24 = load ptr, ptr %7, align 8, !tbaa !68
  call void @decimal_result(ptr noundef %23, ptr noundef %24)
  br label %25

25:                                               ; preds = %22, %19
  %26 = load ptr, ptr %7, align 8, !tbaa !68
  call void @decimal_free(ptr noundef %26)
  br label %27

27:                                               ; preds = %25, %3
  call void @llvm.lifetime.end.p0(i64 8, ptr %7) #14
  ret void
}