; Function Attrs: nounwind uwtable
define internal void @decimalFunc(ptr noundef %0, i32 %1, ptr noundef readonly captures(none) %2) #2 {
  %4 = load ptr, ptr %2, align 8, !tbaa !18
  %5 = tail call fastcc ptr @decimal_new(ptr noundef %0, ptr noundef %4, i32 noundef 0)
  %.not = icmp eq ptr %5, null
  br i1 %.not, label %11, label %6

6:                                                ; preds = %3
  %7 = tail call ptr @sqlite3_user_data(ptr noundef %0) #43
  %.not9 = icmp eq ptr %7, null
  br i1 %.not9, label %9, label %8

8:                                                ; preds = %6
  tail call fastcc void @decimal_result_sci(ptr noundef %0, ptr noundef nonnull %5)
  br label %decimal_free.exit

9:                                                ; preds = %6
  tail call fastcc void @decimal_result(ptr noundef %0, ptr noundef nonnull %5)
  br label %decimal_free.exit

decimal_free.exit:                                ; preds = %9, %8
  %10 = getelementptr i8, ptr %5, i64 16
  %.val.i = load ptr, ptr %10, align 8, !tbaa !57
  tail call void @sqlite3_free(ptr noundef %.val.i) #43
  tail call void @sqlite3_free(ptr noundef nonnull %5) #43
  br label %11

11:                                               ; preds = %decimal_free.exit, %3
  ret void
}